; Function Attrs: nounwind uwtable
define range(i32 0, 2) i32 @Abc_AigCheckTfi_rec(ptr noundef readonly %0, ptr noundef %1) local_unnamed_addr #2 {
  %3 = icmp eq ptr %0, null
  br i1 %3, label %._crit_edge, label %.lr.ph

.lr.ph:                                           ; preds = %2, %tailrecurse
  %.tr26 = phi ptr [ %73, %tailrecurse ], [ %0, %2 ]
  %4 = getelementptr i8, ptr %.tr26, i64 20
  %.val18 = load i32, ptr %4, align 4
  %5 = and i32 %.val18, 15
  switch i32 %5, label %6 [
    i32 5, label %._crit_edge
    i32 2, label %._crit_edge
  ]

6:                                                ; preds = %.lr.ph
  %7 = icmp eq ptr %.tr26, %1
  br i1 %7, label %._crit_edge, label %8

8:                                                ; preds = %6
  %9 = tail call fastcc i32 @Abc_NodeIsTravIdCurrent(ptr noundef nonnull %.tr26)
  %.not14 = icmp eq i32 %9, 0
  br i1 %.not14, label %10, label %._crit_edge

10:                                               ; preds = %8
  %.val19 = load ptr, ptr %.tr26, align 8, !tbaa !13
  %11 = getelementptr i8, ptr %.tr26, i64 16
  %.val20 = load i32, ptr %11, align 8, !tbaa !33
  %12 = getelementptr inbounds nuw i8, ptr %.val19, i64 216
  %13 = load i32, ptr %12, align 8, !tbaa !58
  %14 = getelementptr inbounds nuw i8, ptr %.val19, i64 224
  %15 = add nsw i32 %.val20, 1
  %16 = getelementptr inbounds nuw i8, ptr %.val19, i64 228
  %17 = load i32, ptr %16, align 4, !tbaa !59
  %.not.i.not.i.i.i = icmp slt i32 %.val20, %17
  br i1 %.not.i.not.i.i.i, label %Abc_NodeSetTravIdCurrent.exit, label %18

18:                                               ; preds = %10
  %19 = load i32, ptr %14, align 8, !tbaa !60
  %20 = shl nsw i32 %19, 1
  %.not.i.i.i = icmp slt i32 %.val20, %20
  %.not.i.i.not.i.i.i = icmp sgt i32 %19, %.val20
  br i1 %.not.i.i.i, label %33, label %21

21:                                               ; preds = %18
  br i1 %.not.i.i.not.i.i.i, label %Vec_IntGrow.exit.i.i.i.i, label %22

22:                                               ; preds = %21
  %23 = getelementptr inbounds nuw i8, ptr %.val19, i64 232
  %24 = load ptr, ptr %23, align 8, !tbaa !61
  %.not9.i.i.i.i.i = icmp eq ptr %24, null
  %25 = sext i32 %15 to i64
  %26 = shl nsw i64 %25, 2
  br i1 %.not9.i.i.i.i.i, label %29, label %27

27:                                               ; preds = %22
  %28 = tail call ptr @realloc(ptr noundef nonnull %24, i64 noundef %26) #17
  br label %31

29:                                               ; preds = %22
  %30 = tail call noalias ptr @malloc(i64 noundef %26) #16
  br label %31

31:                                               ; preds = %29, %27
  %32 = phi ptr [ %28, %27 ], [ %30, %29 ]
  store ptr %32, ptr %23, align 8, !tbaa !61
  br label %Vec_IntGrow.exit.sink.split.i.i.i.i

33:                                               ; preds = %18
  br i1 %.not.i.i.not.i.i.i, label %Vec_IntGrow.exit.i.i.i.i, label %34

34:                                               ; preds = %33
  %35 = getelementptr inbounds nuw i8, ptr %.val19, i64 232
  %36 = load ptr, ptr %35, align 8, !tbaa !61
  %.not9.i21.i.i.i.i = icmp eq ptr %36, null
  %37 = sext i32 %20 to i64
  %38 = shl nsw i64 %37, 2
  br i1 %.not9.i21.i.i.i.i, label %41, label %39

39:                                               ; preds = %34
  %40 = tail call ptr @realloc(ptr noundef nonnull %36, i64 noundef %38) #17
  br label %43

41:                                               ; preds = %34
  %42 = tail call noalias ptr @malloc(i64 noundef %38) #16
  br label %43

43:                                               ; preds = %41, %39
  %44 = phi ptr [ %40, %39 ], [ %42, %41 ]
  store ptr %44, ptr %35, align 8, !tbaa !61
  br label %Vec_IntGrow.exit.sink.split.i.i.i.i

Vec_IntGrow.exit.sink.split.i.i.i.i:              ; preds = %43, %31
  %.sink.i.i.i.i = phi i32 [ %20, %43 ], [ %15, %31 ]
  store i32 %.sink.i.i.i.i, ptr %14, align 8, !tbaa !60
  %.pre.i.i.i = load i32, ptr %16, align 4, !tbaa !59
  br label %Vec_IntGrow.exit.i.i.i.i

Vec_IntGrow.exit.i.i.i.i:                         ; preds = %Vec_IntGrow.exit.sink.split.i.i.i.i, %33, %21
  %45 = phi i32 [ %.pre.i.i.i, %Vec_IntGrow.exit.sink.split.i.i.i.i ], [ %17, %33 ], [ %17, %21 ]
  %.not4.i.i.i = icmp sgt i32 %45, %.val20
  br i1 %.not4.i.i.i, label %._crit_edge.i.i.i.i, label %.lr.ph.i.i.i.i

.lr.ph.i.i.i.i:                                   ; preds = %Vec_IntGrow.exit.i.i.i.i
  %46 = getelementptr inbounds nuw i8, ptr %.val19, i64 232
  %47 = load ptr, ptr %46, align 8, !tbaa !61
  %48 = sext i32 %45 to i64
  %49 = shl nsw i64 %48, 2
  %scevgep.i.i.i.i = getelementptr i8, ptr %47, i64 %49
  %50 = sub i32 %.val20, %45
  %51 = zext i32 %50 to i64
  %52 = shl nuw nsw i64 %51, 2
  %53 = add nuw nsw i64 %52, 4
  tail call void @llvm.memset.p0.i64(ptr noundef nonnull align 4 dereferenceable(1) %scevgep.i.i.i.i, i8 0, i64 %53, i1 false), !tbaa !31
  br label %._crit_edge.i.i.i.i

._crit_edge.i.i.i.i:                              ; preds = %.lr.ph.i.i.i.i, %Vec_IntGrow.exit.i.i.i.i
  store i32 %15, ptr %16, align 4, !tbaa !59
  %.val.pre = load ptr, ptr %.tr26, align 8, !tbaa !13
  br label %Abc_NodeSetTravIdCurrent.exit

Abc_NodeSetTravIdCurrent.exit:                    ; preds = %10, %._crit_edge.i.i.i.i
  %.val = phi ptr [ %.val19, %10 ], [ %.val.pre, %._crit_edge.i.i.i.i ]
  %54 = getelementptr i8, ptr %.val19, i64 232
  %.val.i.i.i = load ptr, ptr %54, align 8, !tbaa !61
  %55 = sext i32 %.val20 to i64
  %56 = getelementptr inbounds i32, ptr %.val.i.i.i, i64 %55
  store i32 %13, ptr %56, align 4, !tbaa !31
  %57 = getelementptr i8, ptr %.tr26, i64 32
  %.val17 = load ptr, ptr %57, align 8, !tbaa !14
  %58 = getelementptr i8, ptr %.val, i64 32
  %.val.val = load ptr, ptr %58, align 8, !tbaa !15
  %.val17.val = load i32, ptr %.val17, align 4, !tbaa !31
  %59 = getelementptr i8, ptr %.val.val, i64 8
  %.val.val.val = load ptr, ptr %59, align 8, !tbaa !29
  %60 = sext i32 %.val17.val to i64
  %61 = getelementptr inbounds ptr, ptr %.val.val.val, i64 %60
  %62 = load ptr, ptr %61, align 8, !tbaa !32
  %63 = tail call i32 @Abc_AigCheckTfi_rec(ptr noundef %62, ptr noundef %1)
  %.not15 = icmp eq i32 %63, 0
  br i1 %.not15, label %64, label %._crit_edge

64:                                               ; preds = %Abc_NodeSetTravIdCurrent.exit
  %.val21 = load ptr, ptr %.tr26, align 8, !tbaa !13
  %.val22 = load ptr, ptr %57, align 8, !tbaa !14
  %65 = getelementptr i8, ptr %.val21, i64 32
  %.val21.val = load ptr, ptr %65, align 8, !tbaa !15
  %66 = getelementptr i8, ptr %.val22, i64 4
  %.val22.val = load i32, ptr %66, align 4, !tbaa !31
  %67 = getelementptr i8, ptr %.val21.val, i64 8
  %.val21.val.val = load ptr, ptr %67, align 8, !tbaa !29
  %68 = sext i32 %.val22.val to i64
  %69 = getelementptr inbounds ptr, ptr %.val21.val.val, i64 %68
  %70 = load ptr, ptr %69, align 8, !tbaa !32
  %71 = tail call i32 @Abc_AigCheckTfi_rec(ptr noundef %70, ptr noundef %1)
  %.not16 = icmp eq i32 %71, 0
  br i1 %.not16, label %tailrecurse, label %._crit_edge

tailrecurse:                                      ; preds = %64
  %72 = getelementptr inbounds nuw i8, ptr %.tr26, i64 56
  %73 = load ptr, ptr %72, align 8, !tbaa !62
  %74 = icmp eq ptr %73, null
  br i1 %74, label %._crit_edge, label %.lr.ph

._crit_edge:                                      ; preds = %tailrecurse, %6, %8, %Abc_NodeSetTravIdCurrent.exit, %64, %.lr.ph, %.lr.ph, %2
  %.0 = phi i32 [ 0, %2 ], [ 0, %.lr.ph ], [ 0, %.lr.ph ], [ 1, %64 ], [ 1, %Abc_NodeSetTravIdCurrent.exit ], [ 0, %8 ], [ 1, %6 ], [ 0, %tailrecurse ]
  ret i32 %.0
}